target datalayout = "e-m:e-p270:32:32-p271:32:32-p272:64:64-i64:64-i128:128-f80:128-n8:16:32:64-S128"
target triple = "x86_64-pc-linux-gnu"

; Function Attrs: nounwind uwtable
define internal void @vector_fmul_add_c(ptr noundef %0, ptr noundef %1, ptr noundef %2, ptr noundef %3, i32 noundef %4) #0 {
  %6 = alloca ptr, align 8
  %7 = alloca ptr, align 8
  %8 = alloca ptr, align 8
  %9 = alloca ptr, align 8
  %10 = alloca i32, align 4
  %11 = alloca i32, align 4
  store ptr %0, ptr %6, align 8, !tbaa !32
  store ptr %1, ptr %7, align 8, !tbaa !32
  store ptr %2, ptr %8, align 8, !tbaa !32
  store ptr %3, ptr %9, align 8, !tbaa !32
  store i32 %4, ptr %10, align 4, !tbaa !15
  call void @llvm.lifetime.start.p0(i64 4, ptr %11) #5
  store i32 0, ptr %11, align 4, !tbaa !15
  br label %12

12:                                               ; preds = %37, %5
  %13 = load i32, ptr %11, align 4, !tbaa !15
  %14 = load i32, ptr %10, align 4, !tbaa !15
  %15 = icmp slt i32 %13, %14
  br i1 %15, label %16, label %40

16:                                               ; preds = %12
  %17 = load ptr, ptr %7, align 8, !tbaa !32
  %18 = load i32, ptr %11, align 4, !tbaa !15
  %19 = sext i32 %18 to i64
  %20 = getelementptr inbounds float, ptr %17, i64 %19
  %21 = load float, ptr %20, align 4, !tbaa !34
  %22 = load ptr, ptr %8, align 8, !tbaa !32
  %23 = load i32, ptr %11, align 4, !tbaa !15
  %24 = sext i32 %23 to i64
  %25 = getelementptr inbounds float, ptr %22, i64 %24
  %26 = load float, ptr %25, align 4, !tbaa !34
  %27 = load ptr, ptr %9, align 8, !tbaa !32
  %28 = load i32, ptr %11, align 4, !tbaa !15
  %29 = sext i32 %28 to i64
  %30 = getelementptr inbounds float, ptr %27, i64 %29
  %31 = load float, ptr %30, align 4, !tbaa !34
  %32 = call nsz float @llvm.fmuladd.f32(float %21, float %26, float %31)
  %33 = load ptr, ptr %6, align 8, !tbaa !32
  %34 = load i32, ptr %11, align 4, !tbaa !15
  %35 = sext i32 %34 to i64
  %36 = getelementptr inbounds float, ptr %33, i64 %35
  store float %32, ptr %36, align 4, !tbaa !34
  br label %37

37:                                               ; preds = %16
  %38 = load i32, ptr %11, align 4, !tbaa !15
  %39 = add nsw i32 %38, 1
  store i32 %39, ptr %11, align 4, !tbaa !15
  br label %12, !llvm.loop !43

40:                                               ; preds = %12
  call void @llvm.lifetime.end.p0(i64 4, ptr %11) #5
  ret void
}